; Function Attrs: mustprogress uwtable
define void @_ZN6google8protobuf9EnumValue9MergeImplERNS0_11MessageLiteERKS2_(ptr noundef nonnull align 8 dereferenceable(16) %to_msg, ptr noundef nonnull align 8 dereferenceable(16) %from_msg) #3 align 2 {
entry:
  %current_size_.i.i.i = getelementptr inbounds i8, ptr %from_msg, i64 24
  %0 = load i32, ptr %current_size_.i.i.i, align 8
  %cmp.i.i.i = icmp eq i32 %0, 0
  br i1 %cmp.i.i.i, label %_ZN6google8protobuf16RepeatedPtrFieldINS0_6OptionEE9MergeFromERKS3_.exit, label %if.end.i

if.end.i:                                         ; preds = %entry
  %1 = getelementptr inbounds i8, ptr %from_msg, i64 16
  %2 = getelementptr inbounds i8, ptr %to_msg, i64 16
  tail call void @_ZN6google8protobuf8internal20RepeatedPtrFieldBase24MergeFromConcreteMessageERKS2_PFPvPNS0_5ArenaEPKvE(ptr noundef nonnull align 8 dereferenceable(24) %2, ptr noundef nonnull align 8 dereferenceable(24) %1, ptr noundef nonnull @_ZN6google8protobuf5Arena13CopyConstructINS0_6OptionEEEPvPS1_PKv)
  br label %_ZN6google8protobuf16RepeatedPtrFieldINS0_6OptionEE9MergeFromERKS3_.exit

_ZN6google8protobuf16RepeatedPtrFieldINS0_6OptionEE9MergeFromERKS3_.exit: ; preds = %entry, %if.end.i
  %name_.i10 = getelementptr inbounds i8, ptr %from_msg, i64 40
  %3 = load ptr, ptr %name_.i10, align 8
  %4 = ptrtoint ptr %3 to i64
  %and.i.i = and i64 %4, -4
  %5 = inttoptr i64 %and.i.i to ptr
  %call4 = tail call noundef zeroext i1 @_ZNKSt7__cxx1112basic_stringIcSt11char_traitsIcESaIcEE5emptyEv(ptr noundef nonnull align 8 dereferenceable(32) %5) #16
  br i1 %call4, label %if.end, label %if.then

if.then:                                          ; preds = %_ZN6google8protobuf16RepeatedPtrFieldINS0_6OptionEE9MergeFromERKS3_.exit
  %6 = load ptr, ptr %name_.i10, align 8
  %7 = ptrtoint ptr %6 to i64
  %and.i.i12 = and i64 %7, -4
  %8 = inttoptr i64 %and.i.i12 to ptr
  %name_.i = getelementptr inbounds i8, ptr %to_msg, i64 40
  %_internal_metadata_.i = getelementptr inbounds i8, ptr %to_msg, i64 8
  %9 = load i64, ptr %_internal_metadata_.i, align 8
  %and.i.i.i = and i64 %9, 1
  %tobool.i.i.not.i = icmp eq i64 %and.i.i.i, 0
  br i1 %tobool.i.i.not.i, label %if.else.i.i, label %if.then.i.i

if.then.i.i:                                      ; preds = %if.then
  %and.i.i13 = and i64 %9, -2
  %10 = inttoptr i64 %and.i.i13 to ptr
  %11 = load ptr, ptr %10, align 8
  br label %_ZNK6google8protobuf11MessageLite8GetArenaEv.exit

if.else.i.i:                                      ; preds = %if.then
  %12 = inttoptr i64 %9 to ptr
  br label %_ZNK6google8protobuf11MessageLite8GetArenaEv.exit

_ZNK6google8protobuf11MessageLite8GetArenaEv.exit: ; preds = %if.then.i.i, %if.else.i.i
  %retval.i.0.i = phi ptr [ %11, %if.then.i.i ], [ %12, %if.else.i.i ]
  tail call void @_ZN6google8protobuf8internal14ArenaStringPtr3SetIJEEEvRKNSt7__cxx1112basic_stringIcSt11char_traitsIcESaIcEEEPNS0_5ArenaE(ptr noundef nonnull align 8 dereferenceable(8) %name_.i, ptr noundef nonnull align 8 dereferenceable(32) %8, ptr noundef %retval.i.0.i)
  br label %if.end

if.end:                                           ; preds = %_ZNK6google8protobuf11MessageLite8GetArenaEv.exit, %_ZN6google8protobuf16RepeatedPtrFieldINS0_6OptionEE9MergeFromERKS3_.exit
  %number_.i = getelementptr inbounds i8, ptr %from_msg, i64 48
  %13 = load i32, ptr %number_.i, align 8
  %cmp.not = icmp eq i32 %13, 0
  br i1 %cmp.not, label %if.end9, label %if.then7

if.then7:                                         ; preds = %if.end
  %number_8 = getelementptr inbounds i8, ptr %to_msg, i64 48
  store i32 %13, ptr %number_8, align 8
  br label %if.end9

if.end9:                                          ; preds = %if.then7, %if.end
  %_internal_metadata_10 = getelementptr inbounds i8, ptr %from_msg, i64 8
  %14 = load i64, ptr %_internal_metadata_10, align 8
  %and.i24 = and i64 %14, 1
  %tobool.i25.not = icmp eq i64 %and.i24, 0
  br i1 %tobool.i25.not, label %_ZN6google8protobuf8internal16InternalMetadata9MergeFromINS0_15UnknownFieldSetEEEvRKS2_.exit, label %if.then.i16

if.then.i16:                                      ; preds = %if.end9
  %_internal_metadata_ = getelementptr inbounds i8, ptr %to_msg, i64 8
  %and.i = and i64 %14, -2
  %15 = inttoptr i64 %and.i to ptr
  %unknown_fields.i = getelementptr inbounds i8, ptr %15, i64 8
  tail call void @_ZN6google8protobuf8internal16InternalMetadata11DoMergeFromINS0_15UnknownFieldSetEEEvRKT_(ptr noundef nonnull align 8 dereferenceable(8) %_internal_metadata_, ptr noundef nonnull align 8 dereferenceable(24) %unknown_fields.i)
  br label %_ZN6google8protobuf8internal16InternalMetadata9MergeFromINS0_15UnknownFieldSetEEEvRKS2_.exit

_ZN6google8protobuf8internal16InternalMetadata9MergeFromINS0_15UnknownFieldSetEEEvRKS2_.exit: ; preds = %if.then.i16, %if.end9
  ret void
}